target datalayout = "e-m:e-p270:32:32-p271:32:32-p272:64:64-i64:64-i128:128-f80:128-n8:16:32:64-S128"
target triple = "x86_64-pc-linux-gnu"

%class.anon.16 = type { ptr, ptr }
%"class.grpc_core::HuffDecoder.390" = type <{ %class.anon.16, ptr, ptr, i64, i32, i8, i8, [2 x i8] }>

; Function Attrs: mustprogress nounwind uwtable
define internal void @"_ZN9grpc_core11HuffDecoderIZNS_11HPackParser6String11ParseBinaryEPNS1_5InputEbmE3$_0E5Fill7Ev"(ptr noundef nonnull align 8 dereferenceable(46) %0) #6 align 2 {
  %2 = alloca ptr, align 8
  store ptr %0, ptr %2, align 8, !tbaa !1026
  %3 = load ptr, ptr %2, align 8
  %4 = getelementptr inbounds nuw %"class.grpc_core::HuffDecoder.390", ptr %3, i32 0, i32 3
  %5 = load i64, ptr %4, align 8, !tbaa !1032
  %6 = shl i64 %5, 56
  %7 = getelementptr inbounds nuw %"class.grpc_core::HuffDecoder.390", ptr %3, i32 0, i32 1
  %8 = load ptr, ptr %7, align 8, !tbaa !1028
  %9 = getelementptr inbounds i8, ptr %8, i64 0
  %10 = load i8, ptr %9, align 1, !tbaa !64
  %11 = zext i8 %10 to i64
  %12 = shl i64 %11, 48
  %13 = or i64 %6, %12
  %14 = getelementptr inbounds nuw %"class.grpc_core::HuffDecoder.390", ptr %3, i32 0, i32 1
  %15 = load ptr, ptr %14, align 8, !tbaa !1028
  %16 = getelementptr inbounds i8, ptr %15, i64 1
  %17 = load i8, ptr %16, align 1, !tbaa !64
  %18 = zext i8 %17 to i64
  %19 = shl i64 %18, 40
  %20 = or i64 %13, %19
  %21 = getelementptr inbounds nuw %"class.grpc_core::HuffDecoder.390", ptr %3, i32 0, i32 1
  %22 = load ptr, ptr %21, align 8, !tbaa !1028
  %23 = getelementptr inbounds i8, ptr %22, i64 2
  %24 = load i8, ptr %23, align 1, !tbaa !64
  %25 = zext i8 %24 to i64
  %26 = shl i64 %25, 32
  %27 = or i64 %20, %26
  %28 = getelementptr inbounds nuw %"class.grpc_core::HuffDecoder.390", ptr %3, i32 0, i32 1
  %29 = load ptr, ptr %28, align 8, !tbaa !1028
  %30 = getelementptr inbounds i8, ptr %29, i64 3
  %31 = load i8, ptr %30, align 1, !tbaa !64
  %32 = zext i8 %31 to i64
  %33 = shl i64 %32, 24
  %34 = or i64 %27, %33
  %35 = getelementptr inbounds nuw %"class.grpc_core::HuffDecoder.390", ptr %3, i32 0, i32 1
  %36 = load ptr, ptr %35, align 8, !tbaa !1028
  %37 = getelementptr inbounds i8, ptr %36, i64 4
  %38 = load i8, ptr %37, align 1, !tbaa !64
  %39 = zext i8 %38 to i64
  %40 = shl i64 %39, 16
  %41 = or i64 %34, %40
  %42 = getelementptr inbounds nuw %"class.grpc_core::HuffDecoder.390", ptr %3, i32 0, i32 1
  %43 = load ptr, ptr %42, align 8, !tbaa !1028
  %44 = getelementptr inbounds i8, ptr %43, i64 5
  %45 = load i8, ptr %44, align 1, !tbaa !64
  %46 = zext i8 %45 to i64
  %47 = shl i64 %46, 8
  %48 = or i64 %41, %47
  %49 = getelementptr inbounds nuw %"class.grpc_core::HuffDecoder.390", ptr %3, i32 0, i32 1
  %50 = load ptr, ptr %49, align 8, !tbaa !1028
  %51 = getelementptr inbounds i8, ptr %50, i64 6
  %52 = load i8, ptr %51, align 1, !tbaa !64
  %53 = zext i8 %52 to i64
  %54 = shl i64 %53, 0
  %55 = or i64 %48, %54
  %56 = getelementptr inbounds nuw %"class.grpc_core::HuffDecoder.390", ptr %3, i32 0, i32 3
  store i64 %55, ptr %56, align 8, !tbaa !1032
  %57 = getelementptr inbounds nuw %"class.grpc_core::HuffDecoder.390", ptr %3, i32 0, i32 1
  %58 = load ptr, ptr %57, align 8, !tbaa !1028
  %59 = getelementptr inbounds i8, ptr %58, i64 7
  store ptr %59, ptr %57, align 8, !tbaa !1028
  %60 = getelementptr inbounds nuw %"class.grpc_core::HuffDecoder.390", ptr %3, i32 0, i32 4
  %61 = load i32, ptr %60, align 8, !tbaa !1033
  %62 = add nsw i32 %61, 56
  store i32 %62, ptr %60, align 8, !tbaa !1033
  ret void
}

; Function Attrs: mustprogress nounwind uwtable
define internal void @"_ZN9grpc_core11HuffDecoderIZNS_11HPackParser6String11ParseBinaryEPNS1_5InputEbmE3$_0E5Fill6Ev"(ptr noundef nonnull align 8 dereferenceable(46) %0) #6 align 2 {
  %2 = alloca ptr, align 8
  store ptr %0, ptr %2, align 8, !tbaa !1026
  %3 = load ptr, ptr %2, align 8
  %4 = getelementptr inbounds nuw %"class.grpc_core::HuffDecoder.390", ptr %3, i32 0, i32 3
  %5 = load i64, ptr %4, align 8, !tbaa !1032
  %6 = shl i64 %5, 48
  %7 = getelementptr inbounds nuw %"class.grpc_core::HuffDecoder.390", ptr %3, i32 0, i32 1
  %8 = load ptr, ptr %7, align 8, !tbaa !1028
  %9 = getelementptr inbounds i8, ptr %8, i64 0
  %10 = load i8, ptr %9, align 1, !tbaa !64
  %11 = zext i8 %10 to i64
  %12 = shl i64 %11, 40
  %13 = or i64 %6, %12
  %14 = getelementptr inbounds nuw %"class.grpc_core::HuffDecoder.390", ptr %3, i32 0, i32 1
  %15 = load ptr, ptr %14, align 8, !tbaa !1028
  %16 = getelementptr inbounds i8, ptr %15, i64 1
  %17 = load i8, ptr %16, align 1, !tbaa !64
  %18 = zext i8 %17 to i64
  %19 = shl i64 %18, 32
  %20 = or i64 %13, %19
  %21 = getelementptr inbounds nuw %"class.grpc_core::HuffDecoder.390", ptr %3, i32 0, i32 1
  %22 = load ptr, ptr %21, align 8, !tbaa !1028
  %23 = getelementptr inbounds i8, ptr %22, i64 2
  %24 = load i8, ptr %23, align 1, !tbaa !64
  %25 = zext i8 %24 to i64
  %26 = shl i64 %25, 24
  %27 = or i64 %20, %26
  %28 = getelementptr inbounds nuw %"class.grpc_core::HuffDecoder.390", ptr %3, i32 0, i32 1
  %29 = load ptr, ptr %28, align 8, !tbaa !1028
  %30 = getelementptr inbounds i8, ptr %29, i64 3
  %31 = load i8, ptr %30, align 1, !tbaa !64
  %32 = zext i8 %31 to i64
  %33 = shl i64 %32, 16
  %34 = or i64 %27, %33
  %35 = getelementptr inbounds nuw %"class.grpc_core::HuffDecoder.390", ptr %3, i32 0, i32 1
  %36 = load ptr, ptr %35, align 8, !tbaa !1028
  %37 = getelementptr inbounds i8, ptr %36, i64 4
  %38 = load i8, ptr %37, align 1, !tbaa !64
  %39 = zext i8 %38 to i64
  %40 = shl i64 %39, 8
  %41 = or i64 %34, %40
  %42 = getelementptr inbounds nuw %"class.grpc_core::HuffDecoder.390", ptr %3, i32 0, i32 1
  %43 = load ptr, ptr %42, align 8, !tbaa !1028
  %44 = getelementptr inbounds i8, ptr %43, i64 5
  %45 = load i8, ptr %44, align 1, !tbaa !64
  %46 = zext i8 %45 to i64
  %47 = shl i64 %46, 0
  %48 = or i64 %41, %47
  %49 = getelementptr inbounds nuw %"class.grpc_core::HuffDecoder.390", ptr %3, i32 0, i32 3
  store i64 %48, ptr %49, align 8, !tbaa !1032
  %50 = getelementptr inbounds nuw %"class.grpc_core::HuffDecoder.390", ptr %3, i32 0, i32 1
  %51 = load ptr, ptr %50, align 8, !tbaa !1028
  %52 = getelementptr inbounds i8, ptr %51, i64 6
  store ptr %52, ptr %50, align 8, !tbaa !1028
  %53 = getelementptr inbounds nuw %"class.grpc_core::HuffDecoder.390", ptr %3, i32 0, i32 4
  %54 = load i32, ptr %53, align 8, !tbaa !1033
  %55 = add nsw i32 %54, 48
  store i32 %55, ptr %53, align 8, !tbaa !1033
  ret void
}

; Function Attrs: mustprogress nounwind uwtable
define internal void @"_ZN9grpc_core11HuffDecoderIZNS_11HPackParser6String11ParseBinaryEPNS1_5InputEbmE3$_0E5Fill5Ev"(ptr noundef nonnull align 8 dereferenceable(46) %0) #6 align 2 {
  %2 = alloca ptr, align 8
  store ptr %0, ptr %2, align 8, !tbaa !1026
  %3 = load ptr, ptr %2, align 8
  %4 = getelementptr inbounds nuw %"class.grpc_core::HuffDecoder.390", ptr %3, i32 0, i32 3
  %5 = load i64, ptr %4, align 8, !tbaa !1032
  %6 = shl i64 %5, 40
  %7 = getelementptr inbounds nuw %"class.grpc_core::HuffDecoder.390", ptr %3, i32 0, i32 1
  %8 = load ptr, ptr %7, align 8, !tbaa !1028
  %9 = getelementptr inbounds i8, ptr %8, i64 0
  %10 = load i8, ptr %9, align 1, !tbaa !64
  %11 = zext i8 %10 to i64
  %12 = shl i64 %11, 32
  %13 = or i64 %6, %12
  %14 = getelementptr inbounds nuw %"class.grpc_core::HuffDecoder.390", ptr %3, i32 0, i32 1
  %15 = load ptr, ptr %14, align 8, !tbaa !1028
  %16 = getelementptr inbounds i8, ptr %15, i64 1
  %17 = load i8, ptr %16, align 1, !tbaa !64
  %18 = zext i8 %17 to i64
  %19 = shl i64 %18, 24
  %20 = or i64 %13, %19
  %21 = getelementptr inbounds nuw %"class.grpc_core::HuffDecoder.390", ptr %3, i32 0, i32 1
  %22 = load ptr, ptr %21, align 8, !tbaa !1028
  %23 = getelementptr inbounds i8, ptr %22, i64 2
  %24 = load i8, ptr %23, align 1, !tbaa !64
  %25 = zext i8 %24 to i64
  %26 = shl i64 %25, 16
  %27 = or i64 %20, %26
  %28 = getelementptr inbounds nuw %"class.grpc_core::HuffDecoder.390", ptr %3, i32 0, i32 1
  %29 = load ptr, ptr %28, align 8, !tbaa !1028
  %30 = getelementptr inbounds i8, ptr %29, i64 3
  %31 = load i8, ptr %30, align 1, !tbaa !64
  %32 = zext i8 %31 to i64
  %33 = shl i64 %32, 8
  %34 = or i64 %27, %33
  %35 = getelementptr inbounds nuw %"class.grpc_core::HuffDecoder.390", ptr %3, i32 0, i32 1
  %36 = load ptr, ptr %35, align 8, !tbaa !1028
  %37 = getelementptr inbounds i8, ptr %36, i64 4
  %38 = load i8, ptr %37, align 1, !tbaa !64
  %39 = zext i8 %38 to i64
  %40 = shl i64 %39, 0
  %41 = or i64 %34, %40
  %42 = getelementptr inbounds nuw %"class.grpc_core::HuffDecoder.390", ptr %3, i32 0, i32 3
  store i64 %41, ptr %42, align 8, !tbaa !1032
  %43 = getelementptr inbounds nuw %"class.grpc_core::HuffDecoder.390", ptr %3, i32 0, i32 1
  %44 = load ptr, ptr %43, align 8, !tbaa !1028
  %45 = getelementptr inbounds i8, ptr %44, i64 5
  store ptr %45, ptr %43, align 8, !tbaa !1028
  %46 = getelementptr inbounds nuw %"class.grpc_core::HuffDecoder.390", ptr %3, i32 0, i32 4
  %47 = load i32, ptr %46, align 8, !tbaa !1033
  %48 = add nsw i32 %47, 40
  store i32 %48, ptr %46, align 8, !tbaa !1033
  ret void
}

; Function Attrs: mustprogress nounwind uwtable
define internal void @"_ZN9grpc_core11HuffDecoderIZNS_11HPackParser6String11ParseBinaryEPNS1_5InputEbmE3$_0E5Fill4Ev"(ptr noundef nonnull align 8 dereferenceable(46) %0) #6 align 2 {
  %2 = alloca ptr, align 8
  store ptr %0, ptr %2, align 8, !tbaa !1026
  %3 = load ptr, ptr %2, align 8
  %4 = getelementptr inbounds nuw %"class.grpc_core::HuffDecoder.390", ptr %3, i32 0, i32 3
  %5 = load i64, ptr %4, align 8, !tbaa !1032
  %6 = shl i64 %5, 32
  %7 = getelementptr inbounds nuw %"class.grpc_core::HuffDecoder.390", ptr %3, i32 0, i32 1
  %8 = load ptr, ptr %7, align 8, !tbaa !1028
  %9 = getelementptr inbounds i8, ptr %8, i64 0
  %10 = load i8, ptr %9, align 1, !tbaa !64
  %11 = zext i8 %10 to i64
  %12 = shl i64 %11, 24
  %13 = or i64 %6, %12
  %14 = getelementptr inbounds nuw %"class.grpc_core::HuffDecoder.390", ptr %3, i32 0, i32 1
  %15 = load ptr, ptr %14, align 8, !tbaa !1028
  %16 = getelementptr inbounds i8, ptr %15, i64 1
  %17 = load i8, ptr %16, align 1, !tbaa !64
  %18 = zext i8 %17 to i64
  %19 = shl i64 %18, 16
  %20 = or i64 %13, %19
  %21 = getelementptr inbounds nuw %"class.grpc_core::HuffDecoder.390", ptr %3, i32 0, i32 1
  %22 = load ptr, ptr %21, align 8, !tbaa !1028
  %23 = getelementptr inbounds i8, ptr %22, i64 2
  %24 = load i8, ptr %23, align 1, !tbaa !64
  %25 = zext i8 %24 to i64
  %26 = shl i64 %25, 8
  %27 = or i64 %20, %26
  %28 = getelementptr inbounds nuw %"class.grpc_core::HuffDecoder.390", ptr %3, i32 0, i32 1
  %29 = load ptr, ptr %28, align 8, !tbaa !1028
  %30 = getelementptr inbounds i8, ptr %29, i64 3
  %31 = load i8, ptr %30, align 1, !tbaa !64
  %32 = zext i8 %31 to i64
  %33 = shl i64 %32, 0
  %34 = or i64 %27, %33
  %35 = getelementptr inbounds nuw %"class.grpc_core::HuffDecoder.390", ptr %3, i32 0, i32 3
  store i64 %34, ptr %35, align 8, !tbaa !1032
  %36 = getelementptr inbounds nuw %"class.grpc_core::HuffDecoder.390", ptr %3, i32 0, i32 1
  %37 = load ptr, ptr %36, align 8, !tbaa !1028
  %38 = getelementptr inbounds i8, ptr %37, i64 4
  store ptr %38, ptr %36, align 8, !tbaa !1028
  %39 = getelementptr inbounds nuw %"class.grpc_core::HuffDecoder.390", ptr %3, i32 0, i32 4
  %40 = load i32, ptr %39, align 8, !tbaa !1033
  %41 = add nsw i32 %40, 32
  store i32 %41, ptr %39, align 8, !tbaa !1033
  ret void
}

; Function Attrs: mustprogress nounwind uwtable
define internal void @"_ZN9grpc_core11HuffDecoderIZNS_11HPackParser6String11ParseBinaryEPNS1_5InputEbmE3$_0E5Fill3Ev"(ptr noundef nonnull align 8 dereferenceable(46) %0) #6 align 2 {
  %2 = alloca ptr, align 8
  store ptr %0, ptr %2, align 8, !tbaa !1026
  %3 = load ptr, ptr %2, align 8
  %4 = getelementptr inbounds nuw %"class.grpc_core::HuffDecoder.390", ptr %3, i32 0, i32 3
  %5 = load i64, ptr %4, align 8, !tbaa !1032
  %6 = shl i64 %5, 24
  %7 = getelementptr inbounds nuw %"class.grpc_core::HuffDecoder.390", ptr %3, i32 0, i32 1
  %8 = load ptr, ptr %7, align 8, !tbaa !1028
  %9 = getelementptr inbounds i8, ptr %8, i64 0
  %10 = load i8, ptr %9, align 1, !tbaa !64
  %11 = zext i8 %10 to i64
  %12 = shl i64 %11, 16
  %13 = or i64 %6, %12
  %14 = getelementptr inbounds nuw %"class.grpc_core::HuffDecoder.390", ptr %3, i32 0, i32 1
  %15 = load ptr, ptr %14, align 8, !tbaa !1028
  %16 = getelementptr inbounds i8, ptr %15, i64 1
  %17 = load i8, ptr %16, align 1, !tbaa !64
  %18 = zext i8 %17 to i64
  %19 = shl i64 %18, 8
  %20 = or i64 %13, %19
  %21 = getelementptr inbounds nuw %"class.grpc_core::HuffDecoder.390", ptr %3, i32 0, i32 1
  %22 = load ptr, ptr %21, align 8, !tbaa !1028
  %23 = getelementptr inbounds i8, ptr %22, i64 2
  %24 = load i8, ptr %23, align 1, !tbaa !64
  %25 = zext i8 %24 to i64
  %26 = shl i64 %25, 0
  %27 = or i64 %20, %26
  %28 = getelementptr inbounds nuw %"class.grpc_core::HuffDecoder.390", ptr %3, i32 0, i32 3
  store i64 %27, ptr %28, align 8, !tbaa !1032
  %29 = getelementptr inbounds nuw %"class.grpc_core::HuffDecoder.390", ptr %3, i32 0, i32 1
  %30 = load ptr, ptr %29, align 8, !tbaa !1028
  %31 = getelementptr inbounds i8, ptr %30, i64 3
  store ptr %31, ptr %29, align 8, !tbaa !1028
  %32 = getelementptr inbounds nuw %"class.grpc_core::HuffDecoder.390", ptr %3, i32 0, i32 4
  %33 = load i32, ptr %32, align 8, !tbaa !1033
  %34 = add nsw i32 %33, 24
  store i32 %34, ptr %32, align 8, !tbaa !1033
  ret void
}

; Function Attrs: mustprogress nounwind uwtable
define internal void @"_ZN9grpc_core11HuffDecoderIZNS_11HPackParser6String11ParseBinaryEPNS1_5InputEbmE3$_0E5Fill2Ev"(ptr noundef nonnull align 8 dereferenceable(46) %0) #6 align 2 {
  %2 = alloca ptr, align 8
  store ptr %0, ptr %2, align 8, !tbaa !1026
  %3 = load ptr, ptr %2, align 8
  %4 = getelementptr inbounds nuw %"class.grpc_core::HuffDecoder.390", ptr %3, i32 0, i32 3
  %5 = load i64, ptr %4, align 8, !tbaa !1032
  %6 = shl i64 %5, 16
  %7 = getelementptr inbounds nuw %"class.grpc_core::HuffDecoder.390", ptr %3, i32 0, i32 1
  %8 = load ptr, ptr %7, align 8, !tbaa !1028
  %9 = getelementptr inbounds i8, ptr %8, i64 0
  %10 = load i8, ptr %9, align 1, !tbaa !64
  %11 = zext i8 %10 to i64
  %12 = shl i64 %11, 8
  %13 = or i64 %6, %12
  %14 = getelementptr inbounds nuw %"class.grpc_core::HuffDecoder.390", ptr %3, i32 0, i32 1
  %15 = load ptr, ptr %14, align 8, !tbaa !1028
  %16 = getelementptr inbounds i8, ptr %15, i64 1
  %17 = load i8, ptr %16, align 1, !tbaa !64
  %18 = zext i8 %17 to i64
  %19 = shl i64 %18, 0
  %20 = or i64 %13, %19
  %21 = getelementptr inbounds nuw %"class.grpc_core::HuffDecoder.390", ptr %3, i32 0, i32 3
  store i64 %20, ptr %21, align 8, !tbaa !1032
  %22 = getelementptr inbounds nuw %"class.grpc_core::HuffDecoder.390", ptr %3, i32 0, i32 1
  %23 = load ptr, ptr %22, align 8, !tbaa !1028
  %24 = getelementptr inbounds i8, ptr %23, i64 2
  store ptr %24, ptr %22, align 8, !tbaa !1028
  %25 = getelementptr inbounds nuw %"class.grpc_core::HuffDecoder.390", ptr %3, i32 0, i32 4
  %26 = load i32, ptr %25, align 8, !tbaa !1033
  %27 = add nsw i32 %26, 16
  store i32 %27, ptr %25, align 8, !tbaa !1033
  ret void
}

; Function Attrs: mustprogress nounwind uwtable
define internal void @"_ZN9grpc_core11HuffDecoderIZNS_11HPackParser6String11ParseBinaryEPNS1_5InputEbmE3$_0E5Fill1Ev"(ptr noundef nonnull align 8 dereferenceable(46) %0) #6 align 2 {
  %2 = alloca ptr, align 8
  store ptr %0, ptr %2, align 8, !tbaa !1026
  %3 = load ptr, ptr %2, align 8
  %4 = getelementptr inbounds nuw %"class.grpc_core::HuffDecoder.390", ptr %3, i32 0, i32 3
  %5 = load i64, ptr %4, align 8, !tbaa !1032
  %6 = shl i64 %5, 8
  %7 = getelementptr inbounds nuw %"class.grpc_core::HuffDecoder.390", ptr %3, i32 0, i32 1
  %8 = load ptr, ptr %7, align 8, !tbaa !1028
  %9 = getelementptr inbounds i8, ptr %8, i64 0
  %10 = load i8, ptr %9, align 1, !tbaa !64
  %11 = zext i8 %10 to i64
  %12 = shl i64 %11, 0
  %13 = or i64 %6, %12
  %14 = getelementptr inbounds nuw %"class.grpc_core::HuffDecoder.390", ptr %3, i32 0, i32 3
  store i64 %13, ptr %14, align 8, !tbaa !1032
  %15 = getelementptr inbounds nuw %"class.grpc_core::HuffDecoder.390", ptr %3, i32 0, i32 1
  %16 = load ptr, ptr %15, align 8, !tbaa !1028
  %17 = getelementptr inbounds i8, ptr %16, i64 1
  store ptr %17, ptr %15, align 8, !tbaa !1028
  %18 = getelementptr inbounds nuw %"class.grpc_core::HuffDecoder.390", ptr %3, i32 0, i32 4
  %19 = load i32, ptr %18, align 8, !tbaa !1033
  %20 = add nsw i32 %19, 8
  store i32 %20, ptr %18, align 8, !tbaa !1033
  ret void
}

; Function Attrs: mustprogress uwtable
define internal noundef zeroext i1 @"_ZN9grpc_core11HuffDecoderIZNS_11HPackParser6String11ParseBinaryEPNS1_5InputEbmE3$_0E13Read1to7BytesEv"(ptr noundef nonnull align 8 dereferenceable(46) %0) #4 align 2 {
  %2 = alloca i1, align 1
  %3 = alloca ptr, align 8
  store ptr %0, ptr %3, align 8, !tbaa !1026
  %4 = load ptr, ptr %3, align 8
  %5 = getelementptr inbounds nuw %"class.grpc_core::HuffDecoder.390", ptr %4, i32 0, i32 2
  %6 = load ptr, ptr %5, align 8, !tbaa !1031
  %7 = getelementptr inbounds nuw %"class.grpc_core::HuffDecoder.390", ptr %4, i32 0, i32 1
  %8 = load ptr, ptr %7, align 8, !tbaa !1028
  %9 = ptrtoint ptr %6 to i64
  %10 = ptrtoint ptr %8 to i64
  %11 = sub i64 %9, %10
  switch i64 %11, label %19 [
    i64 0, label %12
    i64 1, label %13
    i64 2, label %14
    i64 3, label %15
    i64 4, label %16
    i64 5, label %17
    i64 6, label %18
  ]

12:                                               ; preds = %1
  store i1 false, ptr %2, align 1
  br label %20

13:                                               ; preds = %1
  call void @"_ZN9grpc_core11HuffDecoderIZNS_11HPackParser6String11ParseBinaryEPNS1_5InputEbmE3$_0E5Fill1Ev"(ptr noundef nonnull align 8 dereferenceable(46) %4)
  store i1 true, ptr %2, align 1
  br label %20

14:                                               ; preds = %1
  call void @"_ZN9grpc_core11HuffDecoderIZNS_11HPackParser6String11ParseBinaryEPNS1_5InputEbmE3$_0E5Fill2Ev"(ptr noundef nonnull align 8 dereferenceable(46) %4)
  store i1 true, ptr %2, align 1
  br label %20

15:                                               ; preds = %1
  call void @"_ZN9grpc_core11HuffDecoderIZNS_11HPackParser6String11ParseBinaryEPNS1_5InputEbmE3$_0E5Fill3Ev"(ptr noundef nonnull align 8 dereferenceable(46) %4)
  store i1 true, ptr %2, align 1
  br label %20

16:                                               ; preds = %1
  call void @"_ZN9grpc_core11HuffDecoderIZNS_11HPackParser6String11ParseBinaryEPNS1_5InputEbmE3$_0E5Fill4Ev"(ptr noundef nonnull align 8 dereferenceable(46) %4)
  store i1 true, ptr %2, align 1
  br label %20

17:                                               ; preds = %1
  call void @"_ZN9grpc_core11HuffDecoderIZNS_11HPackParser6String11ParseBinaryEPNS1_5InputEbmE3$_0E5Fill5Ev"(ptr noundef nonnull align 8 dereferenceable(46) %4)
  store i1 true, ptr %2, align 1
  br label %20

18:                                               ; preds = %1
  call void @"_ZN9grpc_core11HuffDecoderIZNS_11HPackParser6String11ParseBinaryEPNS1_5InputEbmE3$_0E5Fill6Ev"(ptr noundef nonnull align 8 dereferenceable(46) %4)
  store i1 true, ptr %2, align 1
  br label %20

19:                                               ; preds = %1
  call void @"_ZN9grpc_core11HuffDecoderIZNS_11HPackParser6String11ParseBinaryEPNS1_5InputEbmE3$_0E5Fill7Ev"(ptr noundef nonnull align 8 dereferenceable(46) %4)
  store i1 true, ptr %2, align 1
  br label %20

20:                                               ; preds = %19, %18, %17, %16, %15, %14, %13, %12
  %21 = load i1, ptr %2, align 1
  ret i1 %21
}