; Function Attrs: mustprogress nofree norecurse nosync nounwind willreturn memory(read, argmem: readwrite, inaccessiblemem: none) uwtable
define internal fastcc noundef zeroext i1 @"_ZN9grpc_core11HuffDecoderIZNS_11HPackParser6String11ParseBinaryEPNS1_5InputEbmE3$_0E13Read1to7BytesEv"(ptr noundef nonnull align 8 captures(none) dereferenceable(46) %0) unnamed_addr #27 align 2 {
  %2 = getelementptr inbounds nuw i8, ptr %0, i64 24
  %3 = load ptr, ptr %2, align 8, !tbaa !84
  %4 = getelementptr inbounds nuw i8, ptr %0, i64 16
  %5 = load ptr, ptr %4, align 8, !tbaa !81
  %6 = ptrtoint ptr %3 to i64
  %7 = ptrtoint ptr %5 to i64
  %8 = sub i64 %6, %7
  switch i64 %8, label %126 [
    i64 0, label %167
    i64 1, label %9
    i64 2, label %16
    i64 3, label %28
    i64 4, label %45
    i64 5, label %67
    i64 6, label %94
  ]

9:                                                ; preds = %1
  %10 = getelementptr inbounds nuw i8, ptr %0, i64 32
  %11 = load i64, ptr %10, align 8, !tbaa !85
  %12 = shl i64 %11, 8
  %13 = load i8, ptr %5, align 1, !tbaa !54
  %14 = zext i8 %13 to i64
  %15 = or disjoint i64 %12, %14
  store i64 %15, ptr %10, align 8, !tbaa !85
  br label %.sink.split

16:                                               ; preds = %1
  %17 = getelementptr inbounds nuw i8, ptr %0, i64 32
  %18 = load i64, ptr %17, align 8, !tbaa !85
  %19 = shl i64 %18, 16
  %20 = load i8, ptr %5, align 1, !tbaa !54
  %21 = zext i8 %20 to i64
  %22 = shl nuw nsw i64 %21, 8
  %23 = or disjoint i64 %22, %19
  %24 = getelementptr inbounds nuw i8, ptr %5, i64 1
  %25 = load i8, ptr %24, align 1, !tbaa !54
  %26 = zext i8 %25 to i64
  %27 = or disjoint i64 %23, %26
  store i64 %27, ptr %17, align 8, !tbaa !85
  br label %.sink.split

28:                                               ; preds = %1
  %29 = getelementptr inbounds nuw i8, ptr %0, i64 32
  %30 = load i64, ptr %29, align 8, !tbaa !85
  %31 = shl i64 %30, 24
  %32 = load i8, ptr %5, align 1, !tbaa !54
  %33 = zext i8 %32 to i64
  %34 = shl nuw nsw i64 %33, 16
  %35 = or disjoint i64 %34, %31
  %36 = getelementptr inbounds nuw i8, ptr %5, i64 1
  %37 = load i8, ptr %36, align 1, !tbaa !54
  %38 = zext i8 %37 to i64
  %39 = shl nuw nsw i64 %38, 8
  %40 = or disjoint i64 %35, %39
  %41 = getelementptr inbounds nuw i8, ptr %5, i64 2
  %42 = load i8, ptr %41, align 1, !tbaa !54
  %43 = zext i8 %42 to i64
  %44 = or disjoint i64 %40, %43
  store i64 %44, ptr %29, align 8, !tbaa !85
  br label %.sink.split

45:                                               ; preds = %1
  %46 = getelementptr inbounds nuw i8, ptr %0, i64 32
  %47 = load i64, ptr %46, align 8, !tbaa !85
  %48 = shl i64 %47, 32
  %49 = load i8, ptr %5, align 1, !tbaa !54
  %50 = zext i8 %49 to i64
  %51 = shl nuw nsw i64 %50, 24
  %52 = or disjoint i64 %51, %48
  %53 = getelementptr inbounds nuw i8, ptr %5, i64 1
  %54 = load i8, ptr %53, align 1, !tbaa !54
  %55 = zext i8 %54 to i64
  %56 = shl nuw nsw i64 %55, 16
  %57 = or disjoint i64 %52, %56
  %58 = getelementptr inbounds nuw i8, ptr %5, i64 2
  %59 = load i8, ptr %58, align 1, !tbaa !54
  %60 = zext i8 %59 to i64
  %61 = shl nuw nsw i64 %60, 8
  %62 = or disjoint i64 %57, %61
  %63 = getelementptr inbounds nuw i8, ptr %5, i64 3
  %64 = load i8, ptr %63, align 1, !tbaa !54
  %65 = zext i8 %64 to i64
  %66 = or disjoint i64 %62, %65
  store i64 %66, ptr %46, align 8, !tbaa !85
  br label %.sink.split

67:                                               ; preds = %1
  %68 = getelementptr inbounds nuw i8, ptr %0, i64 32
  %69 = load i64, ptr %68, align 8, !tbaa !85
  %70 = shl i64 %69, 40
  %71 = load i8, ptr %5, align 1, !tbaa !54
  %72 = zext i8 %71 to i64
  %73 = shl nuw nsw i64 %72, 32
  %74 = or disjoint i64 %73, %70
  %75 = getelementptr inbounds nuw i8, ptr %5, i64 1
  %76 = load i8, ptr %75, align 1, !tbaa !54
  %77 = zext i8 %76 to i64
  %78 = shl nuw nsw i64 %77, 24
  %79 = or disjoint i64 %74, %78
  %80 = getelementptr inbounds nuw i8, ptr %5, i64 2
  %81 = load i8, ptr %80, align 1, !tbaa !54
  %82 = zext i8 %81 to i64
  %83 = shl nuw nsw i64 %82, 16
  %84 = or disjoint i64 %79, %83
  %85 = getelementptr inbounds nuw i8, ptr %5, i64 3
  %86 = load i8, ptr %85, align 1, !tbaa !54
  %87 = zext i8 %86 to i64
  %88 = shl nuw nsw i64 %87, 8
  %89 = or disjoint i64 %84, %88
  %90 = getelementptr inbounds nuw i8, ptr %5, i64 4
  %91 = load i8, ptr %90, align 1, !tbaa !54
  %92 = zext i8 %91 to i64
  %93 = or disjoint i64 %89, %92
  store i64 %93, ptr %68, align 8, !tbaa !85
  br label %.sink.split

94:                                               ; preds = %1
  %95 = getelementptr inbounds nuw i8, ptr %0, i64 32
  %96 = load i64, ptr %95, align 8, !tbaa !85
  %97 = shl i64 %96, 48
  %98 = load i8, ptr %5, align 1, !tbaa !54
  %99 = zext i8 %98 to i64
  %100 = shl nuw nsw i64 %99, 40
  %101 = or disjoint i64 %100, %97
  %102 = getelementptr inbounds nuw i8, ptr %5, i64 1
  %103 = load i8, ptr %102, align 1, !tbaa !54
  %104 = zext i8 %103 to i64
  %105 = shl nuw nsw i64 %104, 32
  %106 = or disjoint i64 %101, %105
  %107 = getelementptr inbounds nuw i8, ptr %5, i64 2
  %108 = load i8, ptr %107, align 1, !tbaa !54
  %109 = zext i8 %108 to i64
  %110 = shl nuw nsw i64 %109, 24
  %111 = or disjoint i64 %106, %110
  %112 = getelementptr inbounds nuw i8, ptr %5, i64 3
  %113 = load i8, ptr %112, align 1, !tbaa !54
  %114 = zext i8 %113 to i64
  %115 = shl nuw nsw i64 %114, 16
  %116 = or disjoint i64 %111, %115
  %117 = getelementptr inbounds nuw i8, ptr %5, i64 4
  %118 = load i8, ptr %117, align 1, !tbaa !54
  %119 = zext i8 %118 to i64
  %120 = shl nuw nsw i64 %119, 8
  %121 = or disjoint i64 %116, %120
  %122 = getelementptr inbounds nuw i8, ptr %5, i64 5
  %123 = load i8, ptr %122, align 1, !tbaa !54
  %124 = zext i8 %123 to i64
  %125 = or i64 %121, %124
  store i64 %125, ptr %95, align 8, !tbaa !85
  br label %.sink.split

126:                                              ; preds = %1
  %127 = getelementptr inbounds nuw i8, ptr %0, i64 32
  %128 = load i64, ptr %127, align 8, !tbaa !85
  %129 = shl i64 %128, 56
  %130 = load i8, ptr %5, align 1, !tbaa !54
  %131 = zext i8 %130 to i64
  %132 = shl nuw nsw i64 %131, 48
  %133 = or disjoint i64 %132, %129
  %134 = getelementptr inbounds nuw i8, ptr %5, i64 1
  %135 = load i8, ptr %134, align 1, !tbaa !54
  %136 = zext i8 %135 to i64
  %137 = shl nuw nsw i64 %136, 40
  %138 = or disjoint i64 %133, %137
  %139 = getelementptr inbounds nuw i8, ptr %5, i64 2
  %140 = load i8, ptr %139, align 1, !tbaa !54
  %141 = zext i8 %140 to i64
  %142 = shl nuw nsw i64 %141, 32
  %143 = or disjoint i64 %138, %142
  %144 = getelementptr inbounds nuw i8, ptr %5, i64 3
  %145 = load i8, ptr %144, align 1, !tbaa !54
  %146 = zext i8 %145 to i64
  %147 = shl nuw nsw i64 %146, 24
  %148 = or disjoint i64 %143, %147
  %149 = getelementptr inbounds nuw i8, ptr %5, i64 4
  %150 = load i8, ptr %149, align 1, !tbaa !54
  %151 = zext i8 %150 to i64
  %152 = shl nuw nsw i64 %151, 16
  %153 = or disjoint i64 %148, %152
  %154 = getelementptr inbounds nuw i8, ptr %5, i64 5
  %155 = load i8, ptr %154, align 1, !tbaa !54
  %156 = zext i8 %155 to i64
  %157 = shl nuw nsw i64 %156, 8
  %158 = or i64 %153, %157
  %159 = getelementptr inbounds nuw i8, ptr %5, i64 6
  %160 = load i8, ptr %159, align 1, !tbaa !54
  %161 = zext i8 %160 to i64
  %162 = or i64 %158, %161
  store i64 %162, ptr %127, align 8, !tbaa !85
  br label %.sink.split

.sink.split:                                      ; preds = %9, %16, %28, %45, %67, %94, %126
  %.sink5 = phi i64 [ 7, %126 ], [ 6, %94 ], [ 5, %67 ], [ 4, %45 ], [ 3, %28 ], [ 2, %16 ], [ 1, %9 ]
  %.sink4 = phi i32 [ 56, %126 ], [ 48, %94 ], [ 40, %67 ], [ 32, %45 ], [ 24, %28 ], [ 16, %16 ], [ 8, %9 ]
  %163 = getelementptr inbounds nuw i8, ptr %5, i64 %.sink5
  store ptr %163, ptr %4, align 8, !tbaa !81
  %164 = getelementptr inbounds nuw i8, ptr %0, i64 40
  %165 = load i32, ptr %164, align 8, !tbaa !86
  %166 = add nsw i32 %165, %.sink4
  store i32 %166, ptr %164, align 8, !tbaa !86
  br label %167

167:                                              ; preds = %.sink.split, %1
  %.0 = phi i1 [ false, %1 ], [ true, %.sink.split ]
  ret i1 %.0
}